; ModuleID = '19/2251.c'
source_filename = "19/2251.c"
target datalayout = "e-m:e-p270:32:32-p271:32:32-p272:64:64-i64:64-f80:128-n8:16:32:64-S128"
target triple = "x86_64-pc-linux-gnu"

@.str = private unnamed_addr constant [6 x i8] c"%s\0A%s\00", align 1
@.str.1 = private unnamed_addr constant [4 x i8] c"%s \00", align 1
@.str.2 = private unnamed_addr constant [3 x i8] c"%s\00", align 1

; Function Attrs: noinline nounwind uwtable
define dso_local i32 @main() #0 {
  %1 = alloca i32, align 4
  %2 = alloca [100 x i8], align 16
  %3 = alloca [100 x [100 x i8]], align 16
  %4 = alloca [100 x i8], align 16
  %5 = alloca [100 x i8], align 16
  %6 = alloca i32, align 4
  %7 = alloca i32, align 4
  %8 = alloca i32, align 4
  %9 = alloca i32, align 4
  %10 = alloca i32, align 4
  %11 = alloca [10 x i32], align 16
  %12 = alloca i32, align 4
  %13 = alloca i32, align 4
  store i32 0, i32* %1, align 4
  %14 = getelementptr inbounds [100 x i8], [100 x i8]* %2, i64 0, i64 0
  %15 = call i32 (i8*, ...) bitcast (i32 (...)* @gets to i32 (i8*, ...)*)(i8* %14)
  %16 = getelementptr inbounds [100 x i8], [100 x i8]* %4, i64 0, i64 0
  %17 = getelementptr inbounds [100 x i8], [100 x i8]* %5, i64 0, i64 0
  %18 = call i32 (i8*, ...) @__isoc99_scanf(i8* getelementptr inbounds ([6 x i8], [6 x i8]* @.str, i64 0, i64 0), i8* %16, i8* %17)
  store i32 0, i32* %6, align 4
  store i32 0, i32* %7, align 4
  %19 = getelementptr inbounds [100 x i8], [100 x i8]* %2, i64 0, i64 0
  %20 = call i64 @strlen(i8* %19) #4
  %21 = trunc i64 %20 to i32
  store i32 %21, i32* %9, align 4
  store i32 0, i32* %8, align 4
  br label %22

22:                                               ; preds = %77, %0
  %23 = load i32, i32* %8, align 4
  %24 = load i32, i32* %9, align 4
  %25 = icmp slt i32 %23, %24
  br i1 %25, label %26, label %80

26:                                               ; preds = %22
  %27 = load i32, i32* %8, align 4
  %28 = sext i32 %27 to i64
  %29 = getelementptr inbounds [100 x i8], [100 x i8]* %2, i64 0, i64 %28
  %30 = load i8, i8* %29, align 1
  %31 = sext i8 %30 to i32
  %32 = icmp eq i32 %31, 32
  br i1 %32, label %40, label %33

33:                                               ; preds = %26
  %34 = load i32, i32* %8, align 4
  %35 = sext i32 %34 to i64
  %36 = getelementptr inbounds [100 x i8], [100 x i8]* %2, i64 0, i64 %35
  %37 = load i8, i8* %36, align 1
  %38 = sext i8 %37 to i32
  %39 = icmp eq i32 %38, 44
  br i1 %39, label %40, label %49

40:                                               ; preds = %33, %26
  %41 = load i32, i32* %6, align 4
  %42 = sext i32 %41 to i64
  %43 = getelementptr inbounds [100 x [100 x i8]], [100 x [100 x i8]]* %3, i64 0, i64 %42
  %44 = load i32, i32* %7, align 4
  %45 = sext i32 %44 to i64
  %46 = getelementptr inbounds [100 x i8], [100 x i8]* %43, i64 0, i64 %45
  store i8 0, i8* %46, align 1
  %47 = load i32, i32* %6, align 4
  %48 = add nsw i32 %47, 1
  store i32 %48, i32* %6, align 4
  store i32 0, i32* %7, align 4
  br label %76

49:                                               ; preds = %33
  %50 = load i32, i32* %8, align 4
  %51 = sext i32 %50 to i64
  %52 = getelementptr inbounds [100 x i8], [100 x i8]* %2, i64 0, i64 %51
  %53 = load i8, i8* %52, align 1
  %54 = load i32, i32* %6, align 4
  %55 = sext i32 %54 to i64
  %56 = getelementptr inbounds [100 x [100 x i8]], [100 x [100 x i8]]* %3, i64 0, i64 %55
  %57 = load i32, i32* %7, align 4
  %58 = sext i32 %57 to i64
  %59 = getelementptr inbounds [100 x i8], [100 x i8]* %56, i64 0, i64 %58
  store i8 %53, i8* %59, align 1
  %60 = load i32, i32* %7, align 4
  %61 = add nsw i32 %60, 1
  store i32 %61, i32* %7, align 4
  %62 = load i32, i32* %8, align 4
  %63 = load i32, i32* %9, align 4
  %64 = sub nsw i32 %63, 1
  %65 = icmp eq i32 %62, %64
  br i1 %65, label %66, label %75

66:                                               ; preds = %49
  %67 = load i32, i32* %6, align 4
  %68 = sext i32 %67 to i64
  %69 = getelementptr inbounds [100 x [100 x i8]], [100 x [100 x i8]]* %3, i64 0, i64 %68
  %70 = load i32, i32* %7, align 4
  %71 = sext i32 %70 to i64
  %72 = getelementptr inbounds [100 x i8], [100 x i8]* %69, i64 0, i64 %71
  store i8 0, i8* %72, align 1
  %73 = load i32, i32* %6, align 4
  %74 = add nsw i32 %73, 1
  store i32 %74, i32* %6, align 4
  br label %75

75:                                               ; preds = %66, %49
  br label %76

76:                                               ; preds = %75, %40
  br label %77

77:                                               ; preds = %76
  %78 = load i32, i32* %8, align 4
  %79 = add nsw i32 %78, 1
  store i32 %79, i32* %8, align 4
  br label %22

80:                                               ; preds = %22
  store i32 0, i32* %12, align 4
  store i32 0, i32* %10, align 4
  br label %81

81:                                               ; preds = %101, %80
  %82 = load i32, i32* %10, align 4
  %83 = load i32, i32* %8, align 4
  %84 = icmp slt i32 %82, %83
  br i1 %84, label %85, label %104

85:                                               ; preds = %81
  %86 = load i32, i32* %10, align 4
  %87 = sext i32 %86 to i64
  %88 = getelementptr inbounds [100 x [100 x i8]], [100 x [100 x i8]]* %3, i64 0, i64 %87
  %89 = getelementptr inbounds [100 x i8], [100 x i8]* %88, i64 0, i64 0
  %90 = getelementptr inbounds [100 x i8], [100 x i8]* %4, i64 0, i64 0
  %91 = call i32 @strcmp(i8* %89, i8* %90) #4
  %92 = icmp eq i32 %91, 0
  br i1 %92, label %93, label %100

93:                                               ; preds = %85
  %94 = load i32, i32* %10, align 4
  %95 = load i32, i32* %12, align 4
  %96 = sext i32 %95 to i64
  %97 = getelementptr inbounds [10 x i32], [10 x i32]* %11, i64 0, i64 %96
  store i32 %94, i32* %97, align 4
  %98 = load i32, i32* %12, align 4
  %99 = add nsw i32 %98, 1
  store i32 %99, i32* %12, align 4
  br label %100

100:                                              ; preds = %93, %85
  br label %101

101:                                              ; preds = %100
  %102 = load i32, i32* %10, align 4
  %103 = add nsw i32 %102, 1
  store i32 %103, i32* %10, align 4
  br label %81

104:                                              ; preds = %81
  store i32 0, i32* %13, align 4
  br label %105

105:                                              ; preds = %119, %104
  %106 = load i32, i32* %13, align 4
  %107 = load i32, i32* %12, align 4
  %108 = icmp slt i32 %106, %107
  br i1 %108, label %109, label %122

109:                                              ; preds = %105
  %110 = load i32, i32* %13, align 4
  %111 = sext i32 %110 to i64
  %112 = getelementptr inbounds [10 x i32], [10 x i32]* %11, i64 0, i64 %111
  %113 = load i32, i32* %112, align 4
  %114 = sext i32 %113 to i64
  %115 = getelementptr inbounds [100 x [100 x i8]], [100 x [100 x i8]]* %3, i64 0, i64 %114
  %116 = getelementptr inbounds [100 x i8], [100 x i8]* %115, i64 0, i64 0
  %117 = getelementptr inbounds [100 x i8], [100 x i8]* %5, i64 0, i64 0
  %118 = call i8* @strcpy(i8* %116, i8* %117) #5
  br label %119

119:                                              ; preds = %109
  %120 = load i32, i32* %13, align 4
  %121 = add nsw i32 %120, 1
  store i32 %121, i32* %13, align 4
  br label %105

122:                                              ; preds = %105
  store i32 0, i32* %10, align 4
  br label %123

123:                                              ; preds = %145, %122
  %124 = load i32, i32* %10, align 4
  %125 = load i32, i32* %6, align 4
  %126 = icmp slt i32 %124, %125
  br i1 %126, label %127, label %148

127:                                              ; preds = %123
  %128 = load i32, i32* %10, align 4
  %129 = load i32, i32* %6, align 4
  %130 = sub nsw i32 %129, 1
  %131 = icmp ne i32 %128, %130
  br i1 %131, label %132, label %138

132:                                              ; preds = %127
  %133 = load i32, i32* %10, align 4
  %134 = sext i32 %133 to i64
  %135 = getelementptr inbounds [100 x [100 x i8]], [100 x [100 x i8]]* %3, i64 0, i64 %134
  %136 = getelementptr inbounds [100 x i8], [100 x i8]* %135, i64 0, i64 0
  %137 = call i32 (i8*, ...) @printf(i8* getelementptr inbounds ([4 x i8], [4 x i8]* @.str.1, i64 0, i64 0), i8* %136)
  br label %144

138:                                              ; preds = %127
  %139 = load i32, i32* %10, align 4
  %140 = sext i32 %139 to i64
  %141 = getelementptr inbounds [100 x [100 x i8]], [100 x [100 x i8]]* %3, i64 0, i64 %140
  %142 = getelementptr inbounds [100 x i8], [100 x i8]* %141, i64 0, i64 0
  %143 = call i32 (i8*, ...) @printf(i8* getelementptr inbounds ([3 x i8], [3 x i8]* @.str.2, i64 0, i64 0), i8* %142)
  br label %144

144:                                              ; preds = %138, %132
  br label %145

145:                                              ; preds = %144
  %146 = load i32, i32* %10, align 4
  %147 = add nsw i32 %146, 1
  store i32 %147, i32* %10, align 4
  br label %123

148:                                              ; preds = %123
  ret i32 0
}

declare dso_local i32 @gets(...) #1

declare dso_local i32 @__isoc99_scanf(i8*, ...) #1

; Function Attrs: nounwind readonly
declare dso_local i64 @strlen(i8*) #2

; Function Attrs: nounwind readonly
declare dso_local i32 @strcmp(i8*, i8*) #2

; Function Attrs: nounwind
declare dso_local i8* @strcpy(i8*, i8*) #3

declare dso_local i32 @printf(i8*, ...) #1


!llvm.module.flags = !{!0}
!llvm.ident = !{!1}

!0 = !{i32 1, !"wchar_size", i32 4}
!1 = !{!"clang version 10.0.0-4ubuntu1 "}
